ccopy_reg
_reconstructor
p0
(cCMGTools.RootTools.statistics.Average
Average
p1
c__builtin__
object
p2
Ntp3
Rp4
(dp5
S'sumw'
p6
F12674.0
sS'sumwx'
p7
F12214.039999999995
sS'sumwx2'
p8
F11809.275200000018
sS'name'
p9
S'weight'
p10
sb.