ccopy_reg
_reconstructor
p0
(cCMGTools.RootTools.statistics.Average
Average
p1
c__builtin__
object
p2
Ntp3
Rp4
(dp5
S'sumw'
p6
F12674.0
sS'sumwx'
p7
F12749.831261469104
sS'sumwx2'
p8
F14569.261746188982
sS'name'
p9
S'vertexWeight'
p10
sb.