ccopy_reg
_reconstructor
p0
(cCMGTools.RootTools.statistics.Average
Average
p1
c__builtin__
object
p2
Ntp3
Rp4
(dp5
S'sumw'
p6
F12583.0
sS'sumwx'
p7
F12375.15779999999
sS'sumwx2'
p8
F12174.327978860016
sS'name'
p9
S'isoWeight'
p10
sb.