ccopy_reg
_reconstructor
p0
(cCMGTools.RootTools.statistics.Average
Average
p1
c__builtin__
object
p2
Ntp3
Rp4
(dp5
S'sumw'
p6
F12583.0
sS'sumwx'
p7
F11969.665148006419
sS'sumwx2'
p8
F11392.055975751346
sS'name'
p9
S'weight'
p10
sb.