ccopy_reg
_reconstructor
p0
(cCMGTools.RootTools.fwlite.Config
Config
p1
c__builtin__
object
p2
Ntp3
Rp4
(dp5
S'components'
p6
(lp7
g0
(cCMGTools.RootTools.fwlite.Config
MCComponent
p8
g2
Ntp9
Rp10
(dp11
S'files'
p12
(lp13
S'root://eoscms//eos/cms/store/cmst3/group/htautau/CMG/JJHiggs0MToTauTau_M-125p6_8TeV-JHUGenV4/Summer12_DR53X-PU_S10_START53_V19-v1/AODSIM/V5_B/PAT_CMG_V5_16_0/TauMu_Yuta_Jan20_NOM/tauMu_fullsel_tree_CMG_1.root'
p14
asS'isEmbed'
p15
I00
sS'name'
p16
S'Higgs0MGGH125_Chunk0'
p17
sS'isData'
p18
I00
sS'triggers'
p19
(lp20
S'HLT_IsoMu17_eta2p1_LooseIsoPFTau20_v*'
p21
asS'splitFactor'
p22
I250
sS'effCorrFactor'
p23
I1
sS'addWeight'
p24
F1.0
sS'xSection'
p25
NsS'dataset_entries'
p26
I21908
sS'puFileMC'
p27
S'/afs/cern.ch/user/a/agilbert/public/HTT_Pileup/13-09-13/MC_Summer12_PU_S10-600bins.root'
p28
sS'puFileData'
p29
S'/afs/cern.ch/user/a/agilbert/public/HTT_Pileup/13-09-13/Data_Pileup_2012_ReRecoPixel-600bins.root'
p30
sS'isMC'
p31
I01
sS'nGenEvents'
p32
I0
sS'intLumi'
p33
F1.0
sbasS'sequence'
p34
g0
(cCMGTools.RootTools.fwlite.Config
Sequence
p35
c__builtin__
list
p36
(lp37
g0
(cCMGTools.RootTools.fwlite.Config
Analyzer
p38
g2
Ntp39
Rp40
(dp41
g16
S'JSONAnalyzer'
p42
sS'verbose'
p43
I00
sbag0
(g38
g2
Ntp44
Rp45
(dp46
g16
S'TriggerAnalyzer'
p47
sg43
I00
sbag0
(g38
g2
Ntp48
Rp49
(dp50
S'vertexWeight'
p51
Nsg43
I00
sS'fixedWeight'
p52
I1
sS'goodVertices'
p53
S'goodPVFilter'
p54
sg16
S'VertexAnalyzer'
p55
sbag0
(g38
g2
Ntp56
Rp57
(dp58
S'iso1'
p59
NsS'mvametsigs'
p60
S'mvaMETTauMu'
p61
sg16
S'TauMuAnalyzer'
p62
sS'eta2'
p63
F2.1000000000000001
sS'triggerMap'
p64
(dp65
S'HLT_DoubleIsoPFTau35_Trk5_eta2p1_v1'
p66
(S'hltFilterDoubleIsoPFTau35Trk5LeadTrack5IsolationL1HLTMatched'
p67
g67
tp68
sS'HLT_DoubleIsoPFTau35_Trk5_eta2p1_v2'
p69
(g67
g67
tp70
sS'HLT_DoubleIsoPFTau35_Trk5_eta2p1_v3'
p71
(g67
g67
tp72
sS'HLT_DoubleIsoPFTau35_Trk5_eta2p1_v4'
p73
(g67
g67
tp74
sS'HLT_Mu17_Mu8_v22'
p75
(S''
p76
g76
tp77
sS'HLT_Mu17_Mu8_v21'
p78
(g76
g76
tp79
sS'HLT_Ele22_eta2p1_WP90Rho_LooseIsoPFTau20_v*'
p80
((S'hltOverlapFilterIsoEle20WP90LooseIsoPFTau20'
p81
(lp82
I15
aI0
atp83
S'hltEle22WP90RhoTrackIsoFilter'
p84
tp85
sS'HLT_DoubleMediumIsoPFTau35_Trk1_eta2p1_Prong1_v1'
p86
(S'hltDoublePFTau35TrackPt1MediumIsolationProng2Dz02'
p87
g87
tp88
sS'HLT_DoubleMediumIsoPFTau35_Trk1_eta2p1_Prong1_v2'
p89
(g87
g87
tp90
sS'HLT_DoubleMediumIsoPFTau35_Trk1_eta2p1_Prong1_v3'
p91
(g87
g87
tp92
sS'HLT_DoubleMediumIsoPFTau35_Trk1_eta2p1_Prong1_v4'
p93
(g87
g87
tp94
sS'HLT_Ele15_CaloIdVT_CaloIsoT_TrkIdT_TrkIsoT_TightIsoPFTau20_v2'
p95
((S'hltOverlapFilterIsoEle15TightIsoPFTau20'
p96
(lp97
I15
atp98
S'hltEle15CaloIdVTCaloIsoTTrkIdTTrkIsoTTrackIsoFilter'
p99
tp100
sS'HLT_Ele15_CaloIdVT_CaloIsoT_TrkIdT_TrkIsoT_TightIsoPFTau20_v1'
p101
((g96
(lp102
I15
atp103
g99
tp104
sS'HLT_Mu17_Mu8_v18'
p105
(g76
g76
tp106
sS'HLT_Mu17_Mu8_v19'
p107
(g76
g76
tp108
sS'HLT_Mu17_Mu8_v16'
p109
(g76
g76
tp110
sS'HLT_Mu17_Mu8_v17'
p111
(g76
g76
tp112
sS'HLT_IsoMu12_LooseIsoPFTau10_v4'
p113
(S'hltFilterIsoMu12IsoPFTau10LooseIsolation'
p114
S'hltSingleMuIsoL3IsoFiltered12'
p115
tp116
sS'HLT_DoubleMediumIsoPFTau30_Trk1_eta2p1_Reg_Jet30_v1'
p117
(S'hltDoublePFTau30TrackPt1MediumIsolationProng4Dz02Reg'
p118
g118
S'hltTripleL2Jets30eta3'
p119
tp120
sS'HLT_DoubleMediumIsoPFTau35_Trk1_eta2p1_v4'
p121
(S'hltDoublePFTau35TrackPt1MediumIsolationProng4Dz02'
p122
g122
tp123
sS'HLT_DoubleMediumIsoPFTau35_Trk1_eta2p1_v1'
p124
(g122
g122
tp125
sS'HLT_DoubleMediumIsoPFTau35_Trk1_eta2p1_v3'
p126
(g122
g122
tp127
sS'HLT_IsoMu18_eta2p1_LooseIsoPFTau20_v*'
p128
((S'hltOverlapFilterIsoMu18LooseIsoPFTau20'
p129
(lp130
I15
aI0
atp131
(g129
(lp132
I13
atp133
tp134
sS'HLT_Ele15_CaloIdVT_CaloIsoT_TrkIdT_TrkIsoT_LooseIsoPFTau15_v9'
p135
((S'hltOverlapFilterIsoEle15IsoPFTau15'
p136
(lp137
I15
atp138
g99
tp139
sS'HLT_Mu8_Ele17_CaloIdL_v1'
p140
(S'hltL1Mu3EG5L3Filtered8'
p141
S'hltL1NonIsoHLTNonIsoMu8Ele17PixelMatchFilter'
p142
tp143
sS'HLT_Mu8_Ele17_CaloIdL_v2'
p144
(g141
g142
tp145
sS'HLT_Mu8_Ele17_CaloIdL_v3'
p146
(S'hltL1MuOpenEG5L3Filtered8'
p147
g142
tp148
sS'HLT_Mu8_Ele17_CaloIdL_v4'
p149
(g147
g142
tp150
sS'HLT_Mu8_Ele17_CaloIdL_v5'
p151
(g147
g142
tp152
sS'HLT_Mu8_Ele17_CaloIdL_v6'
p153
(g147
g142
tp154
sS'HLT_Ele15_CaloIdVT_CaloIsoT_TrkIdT_TrkIsoT_LooseIsoPFTau15_v1'
p155
((g136
(lp156
I15
atp157
S'hltEle15CaloIdVTTrkIdTCaloIsoTTrkIsoTTrackIsolFilter'
p158
tp159
sS'HLT_Mu8_Ele17_CaloIdT_CaloIsoVL_TrkIdVL_TrkIsoVL_v8'
p160
(S'hltL1sL1Mu3p5EG12ORL1MuOpenEG12L3Filtered8'
p161
S'hltMu8Ele17CaloIdTCaloIsoVLTrkIdVLTrkIsoVLTrackIsoFilter'
p162
tp163
sS'HLT_Ele15_CaloIdVT_CaloIsoT_TrkIdT_TrkIsoT_LooseIsoPFTau15_v2'
p164
((g136
(lp165
I15
atp166
g158
tp167
sS'HLT_Ele15_CaloIdVT_CaloIsoT_TrkIdT_TrkIsoT_LooseIsoPFTau15_v4'
p168
((g136
(lp169
I15
atp170
g158
tp171
sS'HLT_Ele15_CaloIdVT_CaloIsoT_TrkIdT_TrkIsoT_LooseIsoPFTau15_v6'
p172
((g136
(lp173
I15
atp174
g99
tp175
sS'HLT_DoubleMediumIsoPFTau30_Trk1_eta2p1_Jet30_v5'
p176
(S'hltDoublePFTau30TrackPt1MediumIsolationProng4Dz02'
p177
g177
g119
tp178
sS'HLT_DoubleMediumIsoPFTau30_Trk1_eta2p1_Jet30_v4'
p179
(g177
g177
g119
tp180
sS'HLT_DoubleMediumIsoPFTau30_Trk1_eta2p1_Jet30_v3'
p181
(g177
g177
g119
tp182
sS'HLT_DoubleMediumIsoPFTau30_Trk1_eta2p1_Jet30_v2'
p183
(g177
g177
g119
tp184
sS'HLT_DoubleMediumIsoPFTau30_Trk1_eta2p1_Jet30_v1'
p185
(g177
g177
g119
tp186
sS'HLT_Ele20_CaloIdVT_CaloIsoRhoT_TrkIdT_TrkIsoT_LooseIsoPFTau20_v*'
p187
((S'hltOverlapFilterIsoEle20LooseIsoPFTau20'
p188
(lp189
I15
aI0
atp190
S'hltEle20CaloIdVTCaloIsoTTrkIdTTrkIsoTTrackIsoFilterL1IsoEG18OrEG20'
p191
tp192
sS'HLT_Mu8_Ele17_CaloIdT_CaloIsoVL_v4'
p193
(S'hltL1MuOpenEG12L3Filtered8'
p194
S'hltMu8Ele17CaloIdTCaloIsoVLPixelMatchFilter'
p195
tp196
sS'HLT_Mu8_Ele17_CaloIdT_CaloIsoVL_v7'
p197
(g194
g195
tp198
sS'HLT_Mu8_Ele17_CaloIdT_CaloIsoVL_v3'
p199
(g194
g195
tp200
sS'HLT_Mu8_Ele17_CaloIdT_CaloIsoVL_v8'
p201
(g194
g195
tp202
sS'HLT_DoubleIsoPFTau25_Trk5_eta2p1_v1'
p203
(S'hltFilterDoubleIsoPFTau30Trk5LeadTrack5IsolationL1HLTMatched'
p204
g204
tp205
sS'HLT_DoubleIsoPFTau25_Trk5_eta2p1_v3'
p206
(g204
g204
tp207
sS'HLT_DoubleIsoPFTau25_Trk5_eta2p1_v2'
p208
(g204
g204
tp209
sS'HLT_DoubleIsoPFTau25_Trk5_eta2p1_v4'
p210
(g204
g204
tp211
sS'HLT_Ele15_CaloIdVT_CaloIsoT_TrkIdT_TrkIsoT_LooseIsoPFTau15_v8'
p212
((g136
(lp213
I15
atp214
g99
tp215
sS'HLT_Ele15_CaloIdVT_CaloIsoT_TrkIdT_TrkIsoT_LooseIsoPFTau20_v9'
p216
((S'hltOverlapFilterIsoEle15IsoPFTau20'
p217
(lp218
I15
atp219
g99
tp220
sS'HLT_Ele15_CaloIdVT_CaloIsoT_TrkIdT_TrkIsoT_LooseIsoPFTau20_v8'
p221
((g217
(lp222
I15
atp223
g99
tp224
sS'HLT_Ele15_CaloIdVT_CaloIsoT_TrkIdT_TrkIsoT_LooseIsoPFTau20_v4'
p225
((g217
(lp226
I15
atp227
g158
tp228
sS'HLT_Ele15_CaloIdVT_CaloIsoT_TrkIdT_TrkIsoT_LooseIsoPFTau20_v6'
p229
((g217
(lp230
I15
atp231
g99
tp232
sS'HLT_DoubleMediumIsoPFTau30_Trk5_eta2p1_Jet30_v3'
p233
(S'hltDoublePFTau30TrackPt5MediumIsolationProng4Dz02'
p234
g234
g119
tp235
sS'HLT_DoubleMediumIsoPFTau30_Trk5_eta2p1_Jet30_v2'
p236
(g234
g234
g119
tp237
sS'HLT_DoubleMediumIsoPFTau30_Trk5_eta2p1_Jet30_v1'
p238
(g234
g234
g119
tp239
sS'HLT_DoubleMediumIsoPFTau30_Trk5_eta2p1_Jet30_v4'
p240
(g234
g234
g119
tp241
sS'HLT_DoubleIsoPFTau20_Trk5_v1'
p242
(S'hltFilterDoubleIsoPFTau25Trk5LeadTrack5IsolationL1HLTMatched'
p243
g243
tp244
sS'HLT_DoubleIsoPFTau20_Trk5_v3'
p245
(g243
g243
tp246
sS'HLT_DoubleIsoPFTau20_Trk5_v2'
p247
(g243
g243
tp248
sS'HLT_DoubleIsoPFTau20_Trk5_v4'
p249
(g243
g243
tp250
sS'HLT_IsoMu15_LooseIsoPFTau15_v9'
p251
(S'hltPFTau15TrackLooseIso'
p252
S'hltSingleMuIsoL3IsoFiltered15'
p253
tp254
sS'HLT_IsoMu15_LooseIsoPFTau15_v8'
p255
(g252
g253
tp256
sS'HLT_IsoMu15_LooseIsoPFTau15_v5'
p257
(g252
g253
tp258
sS'HLT_IsoMu15_LooseIsoPFTau15_v4'
p259
(g252
g253
tp260
sS'HLT_IsoMu15_LooseIsoPFTau15_v6'
p261
(g252
g253
tp262
sS'HLT_Ele18_CaloIdVT_CaloIsoT_TrkIdT_TrkIsoT_TightIsoPFTau20_v2'
p263
((S'hltOverlapFilterIsoEle18TightIsoPFTau20'
p264
(lp265
I15
atp266
S'hltEle18CaloIdVTCaloIsoTTrkIdTTrkIsoTTrackIsoFilter'
p267
tp268
sS'HLT_IsoMu15_LooseIsoPFTau15_v2'
p269
(g252
g253
tp270
sS'HLT_Mu8_Ele17_CaloIdT_CaloIsoVL_TrkIdVL_TrkIsoVL_v7'
p271
(g161
g162
tp272
sS'HLT_DoubleMediumIsoPFTau35_Trk1_eta2p1_Prong1_Reg_v1'
p273
(S'hltDoublePFTau35TrackPt1MediumIsolationProng2Dz02Reg'
p274
g274
tp275
sS'HLT_Mu17_Ele8_CaloIdL_v2'
p276
(S'hltL1Mu3EG5L3Filtered17'
p277
S'hltL1NonIsoHLTNonIsoMu17Ele8PixelMatchFilter'
p278
tp279
sS'HLT_Mu17_Ele8_CaloIdT_CaloIsoVL_TrkIdVL_TrkIsoVL_v9'
p280
(S'hltL1Mu12EG7L3MuFiltered17'
p281
S'hltMu17Ele8CaloIdTCaloIsoVLTrkIdVLTrkIsoVLTrackIsoFilter'
p282
tp283
sS'HLT_Mu8_Ele17_CaloIdT_CaloIsoVL_TrkIdVL_TrkIsoVL_v5'
p284
(g194
g162
tp285
sS'HLT_DoubleMediumIsoPFTau25_Trk5_eta2p1_Jet30_v4'
p286
(S'hltDoublePFTau25TrackPt5MediumIsolationProng4Dz02'
p287
g287
g119
tp288
sS'HLT_DoubleMediumIsoPFTau25_Trk5_eta2p1_Jet30_v1'
p289
(g287
g287
g119
tp290
sS'HLT_DoubleMediumIsoPFTau25_Trk5_eta2p1_Jet30_v3'
p291
(g287
g287
g119
tp292
sS'HLT_DoubleMediumIsoPFTau25_Trk5_eta2p1_Jet30_v2'
p293
(g287
g287
g119
tp294
sS'HLT_IsoMu15_eta2p1_LooseIsoPFTau20_v6'
p295
(S'hltPFTau20TrackLooseIso'
p296
S'hltSingleMuIsoL1s14L3IsoFiltered15eta2p1'
p297
tp298
sS'HLT_IsoMu15_eta2p1_LooseIsoPFTau20_v5'
p299
(g296
g297
tp300
sS'HLT_IsoMu15_eta2p1_LooseIsoPFTau20_v1'
p301
(g296
g297
tp302
sS'HLT_Ele20_CaloIdVT_CaloIsoT_TrkIdT_TrkIsoT_MediumIsoPFTau20_v7'
p303
((S'hltOverlapFilterIsoEle20MediumIsoPFTau20'
p304
(lp305
I15
atp306
S'hltEle20CaloIdVTCaloIsoTTrkIdTTrkIsoTTrackIsoFilterL1SingleEG18orL1SingleEG20'
p307
tp308
sS'HLT_Ele20_CaloIdVT_CaloIsoT_TrkIdT_TrkIsoT_MediumIsoPFTau20_v6'
p309
((g304
(lp310
I15
atp311
g307
tp312
sS'HLT_Ele20_CaloIdVT_CaloIsoT_TrkIdT_TrkIsoT_MediumIsoPFTau20_v5'
p313
((g304
(lp314
I15
atp315
g307
tp316
sS'HLT_Ele20_CaloIdVT_CaloIsoT_TrkIdT_TrkIsoT_MediumIsoPFTau20_v1'
p317
((g304
(lp318
I15
atp319
g307
tp320
sS'HLT_Ele18_CaloIdVT_CaloIsoT_TrkIdT_TrkIsoT_MediumIsoPFTau20_v1'
p321
(S'hltPFTauMediumIso20TrackMediumIso'
p322
g267
tp323
sS'HLT_Mu17_Ele8_CaloIdT_CaloIsoVL_TrkIdVL_TrkIsoVL_v7'
p324
(g281
g282
tp325
sS'HLT_Mu17_Ele8_CaloIdT_CaloIsoVL_TrkIdVL_TrkIsoVL_v8'
p326
(g281
g282
tp327
sS'HLT_DoubleMediumIsoPFTau35_Trk5_eta2p1_v3'
p328
(S'hltDoublePFTau35TrackPt5MediumIsolationProng4Dz02'
p329
g329
tp330
sS'HLT_DoubleMediumIsoPFTau35_Trk5_eta2p1_v2'
p331
(g329
g329
tp332
sS'HLT_DoubleMediumIsoPFTau35_Trk5_eta2p1_v4'
p333
(g329
g329
tp334
sS'HLT_DoubleMediumIsoPFTau35_Trk5_eta2p1_v6'
p335
(g329
g329
tp336
sS'HLT_Mu17_Ele8_CaloIdT_CaloIsoVL_v3'
p337
(S'hltL1Mu7EG5L3MuFiltered17'
p338
g278
tp339
sS'HLT_Mu17_Ele8_CaloIdT_CaloIsoVL_v7'
p340
(S'hltL1Mu12EG5L3MuFiltered17'
p341
S'hltMu17Ele8CaloIdTPixelMatchFi'
p342
tp343
sS'HLT_Mu17_Ele8_CaloIdT_CaloIsoVL_v4'
p344
(g341
g342
tp345
sS'HLT_Mu17_Ele8_CaloIdT_CaloIsoVL_v8'
p346
(g341
g342
tp347
sS'HLT_IsoMu17_eta2p1_LooseIsoPFTau20_v*'
p348
((S'hltOverlapFilterIsoMu17LooseIsoPFTau20'
p349
(lp350
I15
aI0
atp351
(g349
(lp352
I13
atp353
tp354
sS'HLT_Mu8_Ele17_CaloIdT_CaloIsoVL_TrkIdVL_TrkIsoVL_v6'
p355
(g161
g162
tp356
sS'HLT_Mu17_Ele8_CaloIdL_v3'
p357
(S'hltL1MuOpenEG5L3Filtered17'
p358
g278
tp359
sS'HLT_Mu8_Ele17_CaloIdT_CaloIsoVL_TrkIdVL_TrkIsoVL_v4'
p360
(g194
g162
tp361
sS'HLT_Mu17_Ele8_CaloIdL_v1'
p362
(g277
g278
tp363
sS'HLT_Mu17_Ele8_CaloIdL_v6'
p364
(g358
g278
tp365
sS'HLT_Mu17_Ele8_CaloIdL_v4'
p366
(g358
g278
tp367
sS'HLT_Mu17_Ele8_CaloIdL_v5'
p368
(g358
g278
tp369
sS'HLT_Mu17_Ele8_CaloIdT_CaloIsoVL_TrkIdVL_TrkIsoVL_v4'
p370
(g281
g282
tp371
sS'HLT_Mu17_Ele8_CaloIdT_CaloIsoVL_TrkIdVL_TrkIsoVL_v5'
p372
(g281
g282
tp373
sS'HLT_Mu17_Ele8_CaloIdT_CaloIsoVL_TrkIdVL_TrkIsoVL_v6'
p374
(g281
g282
tp375
sS'HLT_Mu8_Ele17_CaloIdT_CaloIsoVL_TrkIdVL_TrkIsoVL_v9'
p376
(g161
g162
tp377
sS'HLT_DoubleMediumIsoPFTau35_Trk5_eta2p1_Prong1_v4'
p378
(S'hltDoublePFTau35TrackPt5MediumIsolationProng2Dz02'
p379
g379
tp380
sS'HLT_DoubleMediumIsoPFTau35_Trk5_eta2p1_Prong1_v5'
p381
(g379
g379
tp382
sS'HLT_DoubleMediumIsoPFTau35_Trk5_eta2p1_Prong1_v6'
p383
(g379
g379
tp384
sS'HLT_DoubleMediumIsoPFTau35_Trk5_eta2p1_Prong1_v1'
p385
(g379
g379
tp386
sS'HLT_DoubleMediumIsoPFTau35_Trk5_eta2p1_Prong1_v2'
p387
(g379
g379
tp388
sS'HLT_DoubleMediumIsoPFTau35_Trk5_eta2p1_Prong1_v3'
p389
(g379
g379
tp390
ssS'dR_min'
p391
F0.5
sS'scaleShift1'
p392
F1.0
sS'iso2'
p393
F0.10000000000000001
sS'm_max'
p394
I99999
sS'm_min'
p395
I10
sS'eta1'
p396
F2.2999999999999998
sS'pt2'
p397
I20
sS'pt1'
p398
I20
sg43
I00
sbag0
(g38
g2
Ntp399
Rp400
(dp401
S'src'
p402
S'genParticlesPruned'
p403
sS'leptonType'
p404
I13
sg16
S'DYJetsFakeAnalyzer'
p405
sg43
I00
sbag0
(g38
g2
Ntp406
Rp407
(dp408
S'fillTree'
p409
I01
sg16
S'NJetsAnalyzer'
p410
sg43
I00
sbag0
(g38
g2
Ntp411
Rp412
(dp413
g402
g403
sg16
S'HiggsPtWeighter'
p414
sg43
I00
sbag0
(g38
g2
Ntp415
Rp416
(dp417
g16
S'JetAnalyzer'
p418
sS'btagSFseed'
p419
I123456
sS'relaxJetId'
p420
I00
sS'jetCol'
p421
S'cmgPFJetSel'
p422
sS'jetPt'
p423
F20.0
sS'jerCorr'
p424
I00
sS'jetEta'
p425
F4.7000000000000002
sg43
I00
sbag0
(g38
g2
Ntp426
Rp427
(dp428
S'vbfMvaWeights'
p429
g76
sg43
I00
sS'Mjj'
p430
I500
sS'cjvPtCut'
p431
F30.0
sS'deltaEta'
p432
F3.5
sg16
S'VBFSimpleAnalyzer'
p433
sbag0
(g38
g2
Ntp434
Rp435
(dp436
S'true'
p437
I01
sg16
S'PileUpAnalyzer'
p438
sg43
I00
sbag0
(g38
g2
Ntp439
Rp440
(dp441
S'isRecHit'
p442
I00
sg16
S'EmbedWeighter'
p443
sg43
I00
sbag0
(g38
g2
Ntp444
Rp445
(dp446
g16
S'TauDecayModeWeighter'
p447
sg43
I00
sbag0
(g38
g2
Ntp448
Rp449
(dp450
g16
S'TauFakeRateWeighter'
p451
sg43
I00
sbag0
(g38
g2
Ntp452
Rp453
(dp454
S'lepton'
p455
S'leg1'
p456
sS'effWeightMC'
p457
S'effTau_muTau_MC_2012ABCDSummer13'
p458
sS'disable'
p459
I00
sg16
S'LeptonWeighter_tau'
p460
sS'effWeight'
p461
S'effTau_muTau_Data_2012ABCDSummer13'
p462
sg43
I00
sbag0
(g38
g2
Ntp463
Rp464
(dp465
g16
S'LeptonWeighter_mu'
p466
sS'idWeight'
p467
g0
(cCMGTools.H2TauTau.proto.weights.weighttable
WeightTable
p468
g36
(lp469
g0
(cCMGTools.H2TauTau.proto.weights.weighttable
Weight
p470
g2
Ntp471
Rp472
(dp473
S'effData'
p474
g0
(cCMGTools.H2TauTau.proto.weights.weighttable
Value
p475
g2
Ntp476
Rp477
(dp478
S'err'
p479
F0.00029999999999999997
sS'value'
p480
F0.94710000000000005
sbsS'rangeEta'
p481
g0
(cCMGTools.H2TauTau.proto.weights.weighttable
Range
p482
g2
Ntp483
Rp484
(dp485
S'varName'
p486
S'eta'
p487
sS'max'
p488
F0.80000000000000004
sS'min'
p489
F0.0
sbsS'weight'
p490
g0
(g475
g2
Ntp491
Rp492
(dp493
g479
F0.00050000000000000001
sg480
F0.98180000000000001
sbsS'effMC'
p494
g0
(g475
g2
Ntp495
Rp496
(dp497
g479
F0.00040000000000000002
sg480
F0.9647
sbsS'line'
p498
S'20 < pT < 30    *   0   < eta < 0.8   *   0.9647 pm 0.0004   *   0.9471 pm 0.0003   *   0.9818 pm 0.0005'
p499
sS'rangePt'
p500
g0
(g482
g2
Ntp501
Rp502
(dp503
g486
S'pT'
p504
sg488
F30.0
sg489
F20.0
sbsbag0
(g470
g2
Ntp505
Rp506
(dp507
g474
g0
(g475
g2
Ntp508
Rp509
(dp510
g479
F0.00069999999999999999
sg480
F0.94220000000000004
sbsg481
g0
(g482
g2
Ntp511
Rp512
(dp513
g486
S'eta'
p514
sg488
F1.2
sg489
F0.80000000000000004
sbsg490
g0
(g475
g2
Ntp515
Rp516
(dp517
g479
F0.00089999999999999998
sg480
F0.9829
sbsg494
g0
(g475
g2
Ntp518
Rp519
(dp520
g479
F0.00059999999999999995
sg480
F0.95860000000000001
sbsg498
S'20 < pT < 30    *   0.8 < eta < 1.2   *   0.9586 pm 0.0006   *   0.9422 pm 0.0007   *   0.9829 pm 0.0009'
p521
sg500
g0
(g482
g2
Ntp522
Rp523
(dp524
g486
S'pT'
p525
sg488
F30.0
sg489
F20.0
sbsbag0
(g470
g2
Ntp526
Rp527
(dp528
g474
g0
(g475
g2
Ntp529
Rp530
(dp531
g479
F0.00050000000000000001
sg480
F0.93869999999999998
sbsg481
g0
(g482
g2
Ntp532
Rp533
(dp534
g486
S'eta'
p535
sg488
F2.1000000000000001
sg489
F1.2
sbsg490
g0
(g475
g2
Ntp536
Rp537
(dp538
g479
F0.00069999999999999999
sg480
F0.9869
sbsg494
g0
(g475
g2
Ntp539
Rp540
(dp541
g479
F0.00050000000000000001
sg480
F0.95109999999999995
sbsg498
S'20 < pT < 30    *   1.2 < eta < 2.1   *   0.9511 pm 0.0005   *   0.9387 pm 0.0005   *   0.9869 pm 0.0007'
p542
sg500
g0
(g482
g2
Ntp543
Rp544
(dp545
g486
S'pT'
p546
sg488
F30.0
sg489
F20.0
sbsbag0
(g470
g2
Ntp547
Rp548
(dp549
g474
g0
(g475
g2
Ntp550
Rp551
(dp552
g479
F0.0001
sg480
F0.94879999999999998
sbsg481
g0
(g482
g2
Ntp553
Rp554
(dp555
g486
S'eta'
p556
sg488
F0.80000000000000004
sg489
F0.0
sbsg490
g0
(g475
g2
Ntp557
Rp558
(dp559
g479
F0.0001
sg480
F0.98519999999999996
sbsg494
g0
(g475
g2
Ntp560
Rp561
(dp562
g479
F0.0001
sg480
F0.96309999999999996
sbsg498
S'30 < pT < 9999  *   0   < eta < 0.8   *   0.9631 pm 0.0001   *   0.9488 pm 0.0001   *   0.9852 pm 0.0001'
p563
sg500
g0
(g482
g2
Ntp564
Rp565
(dp566
g486
S'pT'
p567
sg488
F9999.0
sg489
F30.0
sbsbag0
(g470
g2
Ntp568
Rp569
(dp570
g474
g0
(g475
g2
Ntp571
Rp572
(dp573
g479
F0.00020000000000000001
sg480
F0.94340000000000002
sbsg481
g0
(g482
g2
Ntp574
Rp575
(dp576
g486
S'eta'
p577
sg488
F1.2
sg489
F0.80000000000000004
sbsg490
g0
(g475
g2
Ntp578
Rp579
(dp580
g479
F0.00020000000000000001
sg480
F0.98519999999999996
sbsg494
g0
(g475
g2
Ntp581
Rp582
(dp583
g479
F0.0001
sg480
F0.95779999999999998
sbsg498
S'30 < pT < 9999  *   0.8 < eta < 1.2   *   0.9578 pm 0.0001   *   0.9434 pm 0.0002   *   0.9852 pm 0.0002'
p584
sg500
g0
(g482
g2
Ntp585
Rp586
(dp587
g486
S'pT'
p588
sg488
F9999.0
sg489
F30.0
sbsbag0
(g470
g2
Ntp589
Rp590
(dp591
g474
g0
(g475
g2
Ntp592
Rp593
(dp594
g479
F0.0001
sg480
F0.93799999999999994
sbsg481
g0
(g482
g2
Ntp595
Rp596
(dp597
g486
S'eta'
p598
sg488
F2.1000000000000001
sg489
F1.2
sbsg490
g0
(g475
g2
Ntp599
Rp600
(dp601
g479
F0.0001
sg480
F0.98839999999999995
sbsg494
g0
(g475
g2
Ntp602
Rp603
(dp604
g479
F0.0001
sg480
F0.94899999999999995
sbsg498
S'30 < pT < 9999  *   1.2 < eta < 2.1   *   0.9490 pm 0.0001   *   0.9380 pm 0.0001   *   0.9884 pm 0.0001'
p605
sg500
g0
(g482
g2
Ntp606
Rp607
(dp608
g486
S'pT'
p609
sg488
F9999.0
sg489
F30.0
sbsbatp610
Rp611
(dp612
g16
S'mu_id_taumu_2012'
p613
sbsg455
S'leg2'
p614
sg457
S'effMu_muTau_MC_2012ABCD'
p615
sg459
I00
sg461
S'effMu_muTau_Data_2012ABCDSummer13'
p616
sS'isoWeight'
p617
g0
(g468
g36
(lp618
g0
(g470
g2
Ntp619
Rp620
(dp621
g474
g0
(g475
g2
Ntp622
Rp623
(dp624
g479
F0.00080000000000000004
sg480
F0.74409999999999998
sbsg481
g0
(g482
g2
Ntp625
Rp626
(dp627
g486
S'eta'
p628
sg488
F0.80000000000000004
sg489
F0.0
sbsg490
g0
(g475
g2
Ntp629
Rp630
(dp631
g479
F0.0015
sg480
F0.94940000000000002
sbsg494
g0
(g475
g2
Ntp632
Rp633
(dp634
g479
F0.001
sg480
F0.78380000000000005
sbsg498
S'20 < pT < 30    *   0 < eta < 0.8     *   0.7838 pm 0.0010   *   0.7441 pm 0.0008   *  0.9494 pm 0.0015'
p635
sg500
g0
(g482
g2
Ntp636
Rp637
(dp638
g486
S'pT'
p639
sg488
F30.0
sg489
F20.0
sbsbag0
(g470
g2
Ntp640
Rp641
(dp642
g474
g0
(g475
g2
Ntp643
Rp644
(dp645
g479
F0.0011999999999999999
sg480
F0.80669999999999997
sbsg481
g0
(g482
g2
Ntp646
Rp647
(dp648
g486
S'eta'
p649
sg488
F1.2
sg489
F0.80000000000000004
sbsg490
g0
(g475
g2
Ntp650
Rp651
(dp652
g479
F0.002
sg480
F0.98350000000000004
sbsg494
g0
(g475
g2
Ntp653
Rp654
(dp655
g479
F0.0011999999999999999
sg480
F0.82010000000000005
sbsg498
S'20 < pT < 30    *   0.8 < eta < 1.2   *   0.8201 pm 0.0012   *   0.8067 pm 0.0012   *  0.9835 pm 0.0020'
p656
sg500
g0
(g482
g2
Ntp657
Rp658
(dp659
g486
S'pT'
p660
sg488
F30.0
sg489
F20.0
sbsbag0
(g470
g2
Ntp661
Rp662
(dp663
g474
g0
(g475
g2
Ntp664
Rp665
(dp666
g479
F0.00080000000000000004
sg480
F0.84499999999999997
sbsg481
g0
(g482
g2
Ntp667
Rp668
(dp669
g486
S'eta'
p670
sg488
F2.1000000000000001
sg489
F1.2
sbsg490
g0
(g475
g2
Ntp671
Rp672
(dp673
g479
F0.0012999999999999999
sg480
F0.99229999999999996
sbsg494
g0
(g475
g2
Ntp674
Rp675
(dp676
g479
F0.00080000000000000004
sg480
F0.85150000000000003
sbsg498
S'20 < pT < 30    *   1.2 < eta < 2.1   *   0.8515 pm 0.0008   *   0.8450 pm 0.0008   *  0.9923 pm 0.0013'
p677
sg500
g0
(g482
g2
Ntp678
Rp679
(dp680
g486
S'pT'
p681
sg488
F30.0
sg489
F20.0
sbsbag0
(g470
g2
Ntp682
Rp683
(dp684
g474
g0
(g475
g2
Ntp685
Rp686
(dp687
g479
F0.00020000000000000001
sg480
F0.90280000000000005
sbsg481
g0
(g482
g2
Ntp688
Rp689
(dp690
g486
S'eta'
p691
sg488
F0.80000000000000004
sg489
F0.0
sbsg490
g0
(g475
g2
Ntp692
Rp693
(dp694
g479
F0.00029999999999999997
sg480
F0.98829999999999996
sbsg494
g0
(g475
g2
Ntp695
Rp696
(dp697
g479
F0.00020000000000000001
sg480
F0.9133
sbsg498
S'30 < pT < 9999  *   0   < eta < 0.8   *   0.9133 pm 0.0002   *   0.9028 pm 0.0002   *  0.9883 pm 0.0003'
p698
sg500
g0
(g482
g2
Ntp699
Rp700
(dp701
g486
S'pT'
p702
sg488
F9999.0
sg489
F30.0
sbsbag0
(g470
g2
Ntp703
Rp704
(dp705
g474
g0
(g475
g2
Ntp706
Rp707
(dp708
g479
F0.00020000000000000001
sg480
F0.92300000000000004
sbsg481
g0
(g482
g2
Ntp709
Rp710
(dp711
g486
S'eta'
p712
sg488
F1.2
sg489
F0.80000000000000004
sbsg490
g0
(g475
g2
Ntp713
Rp714
(dp715
g479
F0.00040000000000000002
sg480
F0.99370000000000003
sbsg494
g0
(g475
g2
Ntp716
Rp717
(dp718
g479
F0.0001
sg480
F0.92889999999999995
sbsg498
S'30 < pT < 9999  *   0.8 < eta < 1.2   *   0.9289 pm 0.0001   *   0.9230 pm 0.0002   *  0.9937 pm 0.0004'
p719
sg500
g0
(g482
g2
Ntp720
Rp721
(dp722
g486
S'pT'
p723
sg488
F9999.0
sg489
F30.0
sbsbag0
(g470
g2
Ntp724
Rp725
(dp726
g474
g0
(g475
g2
Ntp727
Rp728
(dp729
g479
F0.00020000000000000001
sg480
F0.93779999999999997
sbsg481
g0
(g482
g2
Ntp730
Rp731
(dp732
g486
S'eta'
p733
sg488
F2.1000000000000001
sg489
F1.2
sbsg490
g0
(g475
g2
Ntp734
Rp735
(dp736
g479
F0.00050000000000000001
sg480
F0.99960000000000004
sbsg494
g0
(g475
g2
Ntp737
Rp738
(dp739
g479
F0.00040000000000000002
sg480
F0.93820000000000003
sbsg498
S'30 < pT < 9999  *   1.2 < eta < 2.1   *   0.9382 pm 0.0004   *   0.9378 pm 0.0002   *  0.9996 pm 0.0005'
p740
sg500
g0
(g482
g2
Ntp741
Rp742
(dp743
g486
S'pT'
p744
sg488
F9999.0
sg489
F30.0
sbsbatp745
Rp746
(dp747
g16
S'mu_iso_taumu_2012'
p748
sbsg43
I00
sbag0
(g38
g2
Ntp749
Rp750
(dp751
g16
S'H2TauTauTreeProducerTauMu'
p752
sg43
I00
sbatp753
Rp754
sb.