ccopy_reg
_reconstructor
p0
(cCMGTools.RootTools.statistics.Average
Average
p1
c__builtin__
object
p2
Ntp3
Rp4
(dp5
S'sumw'
p6
F12674.0
sS'sumwx'
p7
F11627.458226687997
sS'sumwx2'
p8
F10680.905177502149
sS'name'
p9
S'eff_data'
p10
sb.