ccopy_reg
_reconstructor
p0
(cCMGTools.RootTools.statistics.Counter
Counter
p1
c__builtin__
list
p2
(lp3
(lp4
S'all events'
p5
aI12674
aa(lp6
S'M_jj > 500.0'
p7
aI914
aa(lp8
S'delta Eta > 3.5'
p9
aI678
aa(lp10
S'no central jets'
p11
aI493
aatp12
Rp13
(dp14
S'name'
p15
S'VBF'
p16
sS'dico'
p17
(dp18
g11
I3
sg5
I0
sg9
I2
sg7
I1
ssb.