ccopy_reg
_reconstructor
p0
(cCMGTools.RootTools.statistics.Counter
Counter
p1
c__builtin__
list
p2
(lp3
(lp4
S'all events'
p5
aI12674
aa(lp6
S'at least 2 good jets'
p7
aI11972
aa(lp8
S'at least 2 clean jets'
p9
aI6826
aatp10
Rp11
(dp12
S'name'
p13
S'jets'
p14
sS'dico'
p15
(dp16
g5
I0
sg9
I2
sg7
I1
ssb.