ccopy_reg
_reconstructor
p0
(cCMGTools.RootTools.statistics.Average
Average
p1
c__builtin__
object
p2
Ntp3
Rp4
(dp5
S'sumw'
p6
F12674.0
sS'sumwx'
p7
F11523.731991760289
sS'sumwx2'
p8
F10522.03815040749
sS'name'
p9
S'eff_MC'
p10
sb.