ccopy_reg
_reconstructor
p0
(cCMGTools.RootTools.statistics.Average
Average
p1
c__builtin__
object
p2
Ntp3
Rp4
(dp5
S'sumw'
p6
F12674.0
sS'sumwx'
p7
F12462.997899999991
sS'sumwx2'
p8
F12259.154786970013
sS'name'
p9
S'isoWeight'
p10
sb.