ccopy_reg
_reconstructor
p0
(cCMGTools.RootTools.statistics.Average
Average
p1
c__builtin__
object
p2
Ntp3
Rp4
(dp5
S'sumw'
p6
F12674.0
sS'sumwx'
p7
F12276.790892970002
sS'sumwx2'
p8
F11896.368328670949
sS'name'
p9
S'recEffWeight'
p10
sb.