ccopy_reg
_reconstructor
p0
(cCMGTools.RootTools.statistics.Average
Average
p1
c__builtin__
object
p2
Ntp3
Rp4
(dp5
S'sumw'
p6
F12674.0
sS'sumwx'
p7
F12442.892112461417
sS'sumwx2'
p8
F12217.215270326502
sS'name'
p9
S'triggerWeight'
p10
sb.