ccopy_reg
_reconstructor
p0
(cCMGTools.RootTools.statistics.Average
Average
p1
c__builtin__
object
p2
Ntp3
Rp4
(dp5
S'sumw'
p6
F12674.0
sS'sumwx'
p7
F12053.174903841073
sS'sumwx2'
p8
F11468.580852924362
sS'name'
p9
S'weight'
p10
sb.